target datalayout = "e-m:e-p270:32:32-p271:32:32-p272:64:64-i64:64-i128:128-f80:128-n8:16:32:64-S128"
target triple = "x86_64-pc-linux-gnu"

%struct.ec_method_st = type { i32, i32, ptr, ptr, ptr, ptr, ptr, ptr, ptr, ptr, ptr, ptr, ptr, ptr, ptr, ptr, ptr, ptr, ptr, ptr, ptr, ptr, ptr, ptr, ptr, ptr, ptr, ptr, ptr, ptr, ptr, ptr, ptr, ptr, ptr, ptr, ptr, ptr, ptr, ptr, ptr, ptr, ptr, ptr, ptr, ptr, ptr, ptr, ptr, ptr, ptr, ptr, ptr, ptr, ptr, ptr, ptr }
%struct.ec_group_st = type { ptr, ptr, ptr, ptr, i32, i32, i32, i32, ptr, i64, ptr, [6 x i32], ptr, ptr, i32, ptr, ptr, ptr, ptr, i32, %union.anon, ptr, ptr }
%union.anon = type { ptr }
%struct.ec_point_st = type { ptr, i32, ptr, ptr, ptr, i32 }

; Function Attrs: nounwind uwtable
define i32 @ossl_ec_GFp_simple_set_Jprojective_coordinates_GFp(ptr noundef %0, ptr noundef %1, ptr noundef %2, ptr noundef %3, ptr noundef %4, ptr noundef %5) #0 {
  %7 = alloca i32, align 4
  %8 = alloca ptr, align 8
  %9 = alloca ptr, align 8
  %10 = alloca ptr, align 8
  %11 = alloca ptr, align 8
  %12 = alloca ptr, align 8
  %13 = alloca ptr, align 8
  %14 = alloca ptr, align 8
  %15 = alloca i32, align 4
  %16 = alloca i32, align 4
  %17 = alloca i32, align 4
  store ptr %0, ptr %8, align 8, !tbaa !3
  store ptr %1, ptr %9, align 8, !tbaa !30
  store ptr %2, ptr %10, align 8, !tbaa !21
  store ptr %3, ptr %11, align 8, !tbaa !21
  store ptr %4, ptr %12, align 8, !tbaa !21
  store ptr %5, ptr %13, align 8, !tbaa !22
  call void @llvm.lifetime.start.p0(i64 8, ptr %14) #3
  store ptr null, ptr %14, align 8, !tbaa !22
  call void @llvm.lifetime.start.p0(i64 4, ptr %15) #3
  store i32 0, ptr %15, align 4, !tbaa !24
  %18 = load ptr, ptr %13, align 8, !tbaa !22
  %19 = icmp eq ptr %18, null
  br i1 %19, label %20, label %29

20:                                               ; preds = %6
  %21 = load ptr, ptr %8, align 8, !tbaa !3
  %22 = getelementptr inbounds nuw %struct.ec_group_st, ptr %21, i32 0, i32 21
  %23 = load ptr, ptr %22, align 8, !tbaa !25
  %24 = call ptr @BN_CTX_new_ex(ptr noundef %23)
  store ptr %24, ptr %14, align 8, !tbaa !22
  store ptr %24, ptr %13, align 8, !tbaa !22
  %25 = load ptr, ptr %13, align 8, !tbaa !22
  %26 = icmp eq ptr %25, null
  br i1 %26, label %27, label %28

27:                                               ; preds = %20
  store i32 0, ptr %7, align 4
  store i32 1, ptr %16, align 4
  br label %192

28:                                               ; preds = %20
  br label %29

29:                                               ; preds = %28, %6
  %30 = load ptr, ptr %10, align 8, !tbaa !21
  %31 = icmp ne ptr %30, null
  br i1 %31, label %32, label %70

32:                                               ; preds = %29
  %33 = load ptr, ptr %9, align 8, !tbaa !30
  %34 = getelementptr inbounds nuw %struct.ec_point_st, ptr %33, i32 0, i32 2
  %35 = load ptr, ptr %34, align 8, !tbaa !31
  %36 = load ptr, ptr %10, align 8, !tbaa !21
  %37 = load ptr, ptr %8, align 8, !tbaa !3
  %38 = getelementptr inbounds nuw %struct.ec_group_st, ptr %37, i32 0, i32 10
  %39 = load ptr, ptr %38, align 8, !tbaa !8
  %40 = load ptr, ptr %13, align 8, !tbaa !22
  %41 = call i32 @BN_nnmod(ptr noundef %35, ptr noundef %36, ptr noundef %39, ptr noundef %40)
  %42 = icmp ne i32 %41, 0
  br i1 %42, label %44, label %43

43:                                               ; preds = %32
  br label %189

44:                                               ; preds = %32
  %45 = load ptr, ptr %8, align 8, !tbaa !3
  %46 = getelementptr inbounds nuw %struct.ec_group_st, ptr %45, i32 0, i32 0
  %47 = load ptr, ptr %46, align 8, !tbaa !26
  %48 = getelementptr inbounds nuw %struct.ec_method_st, ptr %47, i32 0, i32 36
  %49 = load ptr, ptr %48, align 8, !tbaa !27
  %50 = icmp ne ptr %49, null
  br i1 %50, label %51, label %69

51:                                               ; preds = %44
  %52 = load ptr, ptr %8, align 8, !tbaa !3
  %53 = getelementptr inbounds nuw %struct.ec_group_st, ptr %52, i32 0, i32 0
  %54 = load ptr, ptr %53, align 8, !tbaa !26
  %55 = getelementptr inbounds nuw %struct.ec_method_st, ptr %54, i32 0, i32 36
  %56 = load ptr, ptr %55, align 8, !tbaa !27
  %57 = load ptr, ptr %8, align 8, !tbaa !3
  %58 = load ptr, ptr %9, align 8, !tbaa !30
  %59 = getelementptr inbounds nuw %struct.ec_point_st, ptr %58, i32 0, i32 2
  %60 = load ptr, ptr %59, align 8, !tbaa !31
  %61 = load ptr, ptr %9, align 8, !tbaa !30
  %62 = getelementptr inbounds nuw %struct.ec_point_st, ptr %61, i32 0, i32 2
  %63 = load ptr, ptr %62, align 8, !tbaa !31
  %64 = load ptr, ptr %13, align 8, !tbaa !22
  %65 = call i32 %56(ptr noundef %57, ptr noundef %60, ptr noundef %63, ptr noundef %64)
  %66 = icmp ne i32 %65, 0
  br i1 %66, label %68, label %67

67:                                               ; preds = %51
  br label %189

68:                                               ; preds = %51
  br label %69

69:                                               ; preds = %68, %44
  br label %70

70:                                               ; preds = %69, %29
  %71 = load ptr, ptr %11, align 8, !tbaa !21
  %72 = icmp ne ptr %71, null
  br i1 %72, label %73, label %111

73:                                               ; preds = %70
  %74 = load ptr, ptr %9, align 8, !tbaa !30
  %75 = getelementptr inbounds nuw %struct.ec_point_st, ptr %74, i32 0, i32 3
  %76 = load ptr, ptr %75, align 8, !tbaa !33
  %77 = load ptr, ptr %11, align 8, !tbaa !21
  %78 = load ptr, ptr %8, align 8, !tbaa !3
  %79 = getelementptr inbounds nuw %struct.ec_group_st, ptr %78, i32 0, i32 10
  %80 = load ptr, ptr %79, align 8, !tbaa !8
  %81 = load ptr, ptr %13, align 8, !tbaa !22
  %82 = call i32 @BN_nnmod(ptr noundef %76, ptr noundef %77, ptr noundef %80, ptr noundef %81)
  %83 = icmp ne i32 %82, 0
  br i1 %83, label %85, label %84

84:                                               ; preds = %73
  br label %189

85:                                               ; preds = %73
  %86 = load ptr, ptr %8, align 8, !tbaa !3
  %87 = getelementptr inbounds nuw %struct.ec_group_st, ptr %86, i32 0, i32 0
  %88 = load ptr, ptr %87, align 8, !tbaa !26
  %89 = getelementptr inbounds nuw %struct.ec_method_st, ptr %88, i32 0, i32 36
  %90 = load ptr, ptr %89, align 8, !tbaa !27
  %91 = icmp ne ptr %90, null
  br i1 %91, label %92, label %110

92:                                               ; preds = %85
  %93 = load ptr, ptr %8, align 8, !tbaa !3
  %94 = getelementptr inbounds nuw %struct.ec_group_st, ptr %93, i32 0, i32 0
  %95 = load ptr, ptr %94, align 8, !tbaa !26
  %96 = getelementptr inbounds nuw %struct.ec_method_st, ptr %95, i32 0, i32 36
  %97 = load ptr, ptr %96, align 8, !tbaa !27
  %98 = load ptr, ptr %8, align 8, !tbaa !3
  %99 = load ptr, ptr %9, align 8, !tbaa !30
  %100 = getelementptr inbounds nuw %struct.ec_point_st, ptr %99, i32 0, i32 3
  %101 = load ptr, ptr %100, align 8, !tbaa !33
  %102 = load ptr, ptr %9, align 8, !tbaa !30
  %103 = getelementptr inbounds nuw %struct.ec_point_st, ptr %102, i32 0, i32 3
  %104 = load ptr, ptr %103, align 8, !tbaa !33
  %105 = load ptr, ptr %13, align 8, !tbaa !22
  %106 = call i32 %97(ptr noundef %98, ptr noundef %101, ptr noundef %104, ptr noundef %105)
  %107 = icmp ne i32 %106, 0
  br i1 %107, label %109, label %108

108:                                              ; preds = %92
  br label %189

109:                                              ; preds = %92
  br label %110

110:                                              ; preds = %109, %85
  br label %111

111:                                              ; preds = %110, %70
  %112 = load ptr, ptr %12, align 8, !tbaa !21
  %113 = icmp ne ptr %112, null
  br i1 %113, label %114, label %188

114:                                              ; preds = %111
  call void @llvm.lifetime.start.p0(i64 4, ptr %17) #3
  %115 = load ptr, ptr %9, align 8, !tbaa !30
  %116 = getelementptr inbounds nuw %struct.ec_point_st, ptr %115, i32 0, i32 4
  %117 = load ptr, ptr %116, align 8, !tbaa !34
  %118 = load ptr, ptr %12, align 8, !tbaa !21
  %119 = load ptr, ptr %8, align 8, !tbaa !3
  %120 = getelementptr inbounds nuw %struct.ec_group_st, ptr %119, i32 0, i32 10
  %121 = load ptr, ptr %120, align 8, !tbaa !8
  %122 = load ptr, ptr %13, align 8, !tbaa !22
  %123 = call i32 @BN_nnmod(ptr noundef %117, ptr noundef %118, ptr noundef %121, ptr noundef %122)
  %124 = icmp ne i32 %123, 0
  br i1 %124, label %126, label %125

125:                                              ; preds = %114
  store i32 2, ptr %16, align 4
  br label %185

126:                                              ; preds = %114
  %127 = load ptr, ptr %9, align 8, !tbaa !30
  %128 = getelementptr inbounds nuw %struct.ec_point_st, ptr %127, i32 0, i32 4
  %129 = load ptr, ptr %128, align 8, !tbaa !34
  %130 = call i32 @BN_is_one(ptr noundef %129)
  store i32 %130, ptr %17, align 4, !tbaa !24
  %131 = load ptr, ptr %8, align 8, !tbaa !3
  %132 = getelementptr inbounds nuw %struct.ec_group_st, ptr %131, i32 0, i32 0
  %133 = load ptr, ptr %132, align 8, !tbaa !26
  %134 = getelementptr inbounds nuw %struct.ec_method_st, ptr %133, i32 0, i32 36
  %135 = load ptr, ptr %134, align 8, !tbaa !27
  %136 = icmp ne ptr %135, null
  br i1 %136, label %137, label %181

137:                                              ; preds = %126
  %138 = load i32, ptr %17, align 4, !tbaa !24
  %139 = icmp ne i32 %138, 0
  br i1 %139, label %140, label %162

140:                                              ; preds = %137
  %141 = load ptr, ptr %8, align 8, !tbaa !3
  %142 = getelementptr inbounds nuw %struct.ec_group_st, ptr %141, i32 0, i32 0
  %143 = load ptr, ptr %142, align 8, !tbaa !26
  %144 = getelementptr inbounds nuw %struct.ec_method_st, ptr %143, i32 0, i32 38
  %145 = load ptr, ptr %144, align 8, !tbaa !48
  %146 = icmp ne ptr %145, null
  br i1 %146, label %147, label %162

147:                                              ; preds = %140
  %148 = load ptr, ptr %8, align 8, !tbaa !3
  %149 = getelementptr inbounds nuw %struct.ec_group_st, ptr %148, i32 0, i32 0
  %150 = load ptr, ptr %149, align 8, !tbaa !26
  %151 = getelementptr inbounds nuw %struct.ec_method_st, ptr %150, i32 0, i32 38
  %152 = load ptr, ptr %151, align 8, !tbaa !48
  %153 = load ptr, ptr %8, align 8, !tbaa !3
  %154 = load ptr, ptr %9, align 8, !tbaa !30
  %155 = getelementptr inbounds nuw %struct.ec_point_st, ptr %154, i32 0, i32 4
  %156 = load ptr, ptr %155, align 8, !tbaa !34
  %157 = load ptr, ptr %13, align 8, !tbaa !22
  %158 = call i32 %152(ptr noundef %153, ptr noundef %156, ptr noundef %157)
  %159 = icmp ne i32 %158, 0
  br i1 %159, label %161, label %160

160:                                              ; preds = %147
  store i32 2, ptr %16, align 4
  br label %185

161:                                              ; preds = %147
  br label %180

162:                                              ; preds = %140, %137
  %163 = load ptr, ptr %8, align 8, !tbaa !3
  %164 = getelementptr inbounds nuw %struct.ec_group_st, ptr %163, i32 0, i32 0
  %165 = load ptr, ptr %164, align 8, !tbaa !26
  %166 = getelementptr inbounds nuw %struct.ec_method_st, ptr %165, i32 0, i32 36
  %167 = load ptr, ptr %166, align 8, !tbaa !27
  %168 = load ptr, ptr %8, align 8, !tbaa !3
  %169 = load ptr, ptr %9, align 8, !tbaa !30
  %170 = getelementptr inbounds nuw %struct.ec_point_st, ptr %169, i32 0, i32 4
  %171 = load ptr, ptr %170, align 8, !tbaa !34
  %172 = load ptr, ptr %9, align 8, !tbaa !30
  %173 = getelementptr inbounds nuw %struct.ec_point_st, ptr %172, i32 0, i32 4
  %174 = load ptr, ptr %173, align 8, !tbaa !34
  %175 = load ptr, ptr %13, align 8, !tbaa !22
  %176 = call i32 %167(ptr noundef %168, ptr noundef %171, ptr noundef %174, ptr noundef %175)
  %177 = icmp ne i32 %176, 0
  br i1 %177, label %179, label %178

178:                                              ; preds = %162
  store i32 2, ptr %16, align 4
  br label %185

179:                                              ; preds = %162
  br label %180

180:                                              ; preds = %179, %161
  br label %181

181:                                              ; preds = %180, %126
  %182 = load i32, ptr %17, align 4, !tbaa !24
  %183 = load ptr, ptr %9, align 8, !tbaa !30
  %184 = getelementptr inbounds nuw %struct.ec_point_st, ptr %183, i32 0, i32 5
  store i32 %182, ptr %184, align 8, !tbaa !35
  store i32 0, ptr %16, align 4
  br label %185

185:                                              ; preds = %178, %160, %125, %181
  call void @llvm.lifetime.end.p0(i64 4, ptr %17) #3
  %186 = load i32, ptr %16, align 4
  switch i32 %186, label %192 [
    i32 0, label %187
    i32 2, label %189
  ]

187:                                              ; preds = %185
  br label %188

188:                                              ; preds = %187, %111
  store i32 1, ptr %15, align 4, !tbaa !24
  br label %189

189:                                              ; preds = %188, %185, %108, %84, %67, %43
  %190 = load ptr, ptr %14, align 8, !tbaa !22
  call void @BN_CTX_free(ptr noundef %190)
  %191 = load i32, ptr %15, align 4, !tbaa !24
  store i32 %191, ptr %7, align 4
  store i32 1, ptr %16, align 4
  br label %192

192:                                              ; preds = %189, %185, %27
  call void @llvm.lifetime.end.p0(i64 4, ptr %15) #3
  call void @llvm.lifetime.end.p0(i64 8, ptr %14) #3
  %193 = load i32, ptr %7, align 4
  ret i32 %193
}