; Function Attrs: nounwind uwtable
define range(i32 0, 2) i32 @ossl_ec_GFp_simple_set_Jprojective_coordinates_GFp(ptr noundef %0, ptr noundef captures(none) %1, ptr noundef %2, ptr noundef %3, ptr noundef %4, ptr noundef %5) local_unnamed_addr #1 {
  %7 = icmp eq ptr %5, null
  br i1 %7, label %8, label %13

8:                                                ; preds = %6
  %9 = getelementptr inbounds nuw i8, ptr %0, i64 168
  %10 = load ptr, ptr %9, align 8, !tbaa !19
  %11 = tail call ptr @BN_CTX_new_ex(ptr noundef %10) #4
  %12 = icmp eq ptr %11, null
  br i1 %12, label %66, label %13

13:                                               ; preds = %8, %6
  %.051 = phi ptr [ %11, %8 ], [ %5, %6 ]
  %.050 = phi ptr [ %11, %8 ], [ null, %6 ]
  %.not = icmp eq ptr %2, null
  br i1 %.not, label %27, label %14

14:                                               ; preds = %13
  %15 = getelementptr inbounds nuw i8, ptr %1, i64 16
  %16 = load ptr, ptr %15, align 8, !tbaa !24
  %17 = getelementptr inbounds nuw i8, ptr %0, i64 64
  %18 = load ptr, ptr %17, align 8, !tbaa !3
  %19 = tail call i32 @BN_nnmod(ptr noundef %16, ptr noundef nonnull %2, ptr noundef %18, ptr noundef nonnull %.051) #4
  %.not60 = icmp eq i32 %19, 0
  br i1 %.not60, label %.thread, label %20

20:                                               ; preds = %14
  %21 = load ptr, ptr %0, align 8, !tbaa !20
  %22 = getelementptr inbounds nuw i8, ptr %21, i64 280
  %23 = load ptr, ptr %22, align 8, !tbaa !21
  %.not61 = icmp eq ptr %23, null
  br i1 %.not61, label %27, label %24

24:                                               ; preds = %20
  %25 = load ptr, ptr %15, align 8, !tbaa !24
  %26 = tail call i32 %23(ptr noundef nonnull %0, ptr noundef %25, ptr noundef %25, ptr noundef nonnull %.051) #4
  %.not62 = icmp eq i32 %26, 0
  br i1 %.not62, label %.thread, label %27

27:                                               ; preds = %20, %24, %13
  %.not63 = icmp eq ptr %3, null
  br i1 %.not63, label %41, label %28

28:                                               ; preds = %27
  %29 = getelementptr inbounds nuw i8, ptr %1, i64 24
  %30 = load ptr, ptr %29, align 8, !tbaa !26
  %31 = getelementptr inbounds nuw i8, ptr %0, i64 64
  %32 = load ptr, ptr %31, align 8, !tbaa !3
  %33 = tail call i32 @BN_nnmod(ptr noundef %30, ptr noundef nonnull %3, ptr noundef %32, ptr noundef nonnull %.051) #4
  %.not64 = icmp eq i32 %33, 0
  br i1 %.not64, label %.thread, label %34

34:                                               ; preds = %28
  %35 = load ptr, ptr %0, align 8, !tbaa !20
  %36 = getelementptr inbounds nuw i8, ptr %35, i64 280
  %37 = load ptr, ptr %36, align 8, !tbaa !21
  %.not65 = icmp eq ptr %37, null
  br i1 %.not65, label %41, label %38

38:                                               ; preds = %34
  %39 = load ptr, ptr %29, align 8, !tbaa !26
  %40 = tail call i32 %37(ptr noundef nonnull %0, ptr noundef %39, ptr noundef %39, ptr noundef nonnull %.051) #4
  %.not66 = icmp eq i32 %40, 0
  br i1 %.not66, label %.thread, label %41

41:                                               ; preds = %34, %38, %27
  %.not67 = icmp eq ptr %4, null
  br i1 %.not67, label %.thread, label %42

42:                                               ; preds = %41
  %43 = getelementptr inbounds nuw i8, ptr %1, i64 32
  %44 = load ptr, ptr %43, align 8, !tbaa !27
  %45 = getelementptr inbounds nuw i8, ptr %0, i64 64
  %46 = load ptr, ptr %45, align 8, !tbaa !3
  %47 = tail call i32 @BN_nnmod(ptr noundef %44, ptr noundef nonnull %4, ptr noundef %46, ptr noundef nonnull %.051) #4
  %.not68 = icmp eq i32 %47, 0
  br i1 %.not68, label %.thread, label %48

48:                                               ; preds = %42
  %49 = load ptr, ptr %43, align 8, !tbaa !27
  %50 = tail call i32 @BN_is_one(ptr noundef %49) #4
  %51 = load ptr, ptr %0, align 8, !tbaa !20
  %52 = getelementptr inbounds nuw i8, ptr %51, i64 280
  %53 = load ptr, ptr %52, align 8, !tbaa !21
  %.not69 = icmp eq ptr %53, null
  br i1 %.not69, label %64, label %54

54:                                               ; preds = %48
  %.not70 = icmp eq i32 %50, 0
  br i1 %.not70, label %61, label %55

55:                                               ; preds = %54
  %56 = getelementptr inbounds nuw i8, ptr %51, i64 296
  %57 = load ptr, ptr %56, align 8, !tbaa !37
  %.not71 = icmp eq ptr %57, null
  br i1 %.not71, label %61, label %58

58:                                               ; preds = %55
  %59 = load ptr, ptr %43, align 8, !tbaa !27
  %60 = tail call i32 %57(ptr noundef nonnull %0, ptr noundef %59, ptr noundef nonnull %.051) #4
  %.not73 = icmp eq i32 %60, 0
  br i1 %.not73, label %.thread, label %64

61:                                               ; preds = %55, %54
  %62 = load ptr, ptr %43, align 8, !tbaa !27
  %63 = tail call i32 %53(ptr noundef nonnull %0, ptr noundef %62, ptr noundef %62, ptr noundef nonnull %.051) #4
  %.not72 = icmp eq i32 %63, 0
  br i1 %.not72, label %.thread, label %64

64:                                               ; preds = %48, %61, %58
  %65 = getelementptr inbounds nuw i8, ptr %1, i64 40
  store i32 %50, ptr %65, align 8, !tbaa !28
  br label %.thread

.thread:                                          ; preds = %61, %58, %42, %41, %64, %38, %28, %24, %14
  %.049 = phi i32 [ 0, %38 ], [ 0, %28 ], [ 0, %24 ], [ 0, %14 ], [ 1, %64 ], [ 1, %41 ], [ 0, %42 ], [ 0, %58 ], [ 0, %61 ]
  tail call void @BN_CTX_free(ptr noundef %.050) #4
  br label %66

66:                                               ; preds = %8, %.thread
  %.0 = phi i32 [ %.049, %.thread ], [ 0, %8 ]
  ret i32 %.0
}